target datalayout = "e-m:e-p270:32:32-p271:32:32-p272:64:64-i64:64-i128:128-f80:128-n8:16:32:64-S128"
target triple = "x86_64-pc-linux-gnu"

%struct.Aig_Man_t_ = type { ptr, ptr, ptr, ptr, ptr, ptr, ptr, %struct.Aig_Obj_t_, i32, i32, i32, i32, i32, i32, [7 x i32], i32, ptr, i32, ptr, i32, ptr, i32, i32, i32, ptr, i32, i32, i32, i32, i32, ptr, ptr, i32, ptr, ptr, i32, ptr, ptr, i32, i32, i32, ptr, ptr, ptr, ptr, ptr, ptr, ptr, ptr, ptr, ptr, ptr, ptr, ptr, ptr, i32, ptr, ptr, ptr, ptr, i32, i64, i64, i64, ptr, ptr }
%struct.Aig_Obj_t_ = type { %union.anon, ptr, ptr, i64, i32, i32, %union.anon.0 }
%union.anon = type { ptr }
%union.anon.0 = type { ptr }
%struct.Vec_Ptr_t_ = type { i32, i32, ptr }

; Function Attrs: nounwind uwtable
define internal void @Aig_ObjSetRepr_(ptr noundef %0, ptr noundef %1, ptr noundef %2) #0 {
  %4 = alloca ptr, align 8
  %5 = alloca ptr, align 8
  %6 = alloca ptr, align 8
  store ptr %0, ptr %4, align 8
  store ptr %1, ptr %5, align 8
  store ptr %2, ptr %6, align 8
  %7 = load ptr, ptr %5, align 8
  %8 = load ptr, ptr %6, align 8
  %9 = icmp eq ptr %7, %8
  br i1 %9, label %10, label %11

10:                                               ; preds = %3
  br label %39

11:                                               ; preds = %3
  %12 = load ptr, ptr %5, align 8
  %13 = getelementptr inbounds %struct.Aig_Obj_t_, ptr %12, i32 0, i32 5
  %14 = load i32, ptr %13, align 4
  %15 = load ptr, ptr %6, align 8
  %16 = getelementptr inbounds %struct.Aig_Obj_t_, ptr %15, i32 0, i32 5
  %17 = load i32, ptr %16, align 4
  %18 = icmp slt i32 %14, %17
  br i1 %18, label %19, label %29

19:                                               ; preds = %11
  %20 = load ptr, ptr %5, align 8
  %21 = load ptr, ptr %4, align 8
  %22 = getelementptr inbounds %struct.Aig_Man_t_, ptr %21, i32 0, i32 31
  %23 = load ptr, ptr %22, align 8
  %24 = load ptr, ptr %6, align 8
  %25 = getelementptr inbounds %struct.Aig_Obj_t_, ptr %24, i32 0, i32 5
  %26 = load i32, ptr %25, align 4
  %27 = sext i32 %26 to i64
  %28 = getelementptr inbounds ptr, ptr %23, i64 %27
  store ptr %20, ptr %28, align 8
  br label %39

29:                                               ; preds = %11
  %30 = load ptr, ptr %6, align 8
  %31 = load ptr, ptr %4, align 8
  %32 = getelementptr inbounds %struct.Aig_Man_t_, ptr %31, i32 0, i32 31
  %33 = load ptr, ptr %32, align 8
  %34 = load ptr, ptr %5, align 8
  %35 = getelementptr inbounds %struct.Aig_Obj_t_, ptr %34, i32 0, i32 5
  %36 = load i32, ptr %35, align 4
  %37 = sext i32 %36 to i64
  %38 = getelementptr inbounds ptr, ptr %33, i64 %37
  store ptr %30, ptr %38, align 8
  br label %39

39:                                               ; preds = %29, %19, %10
  ret void
}

; Function Attrs: nounwind uwtable
define internal ptr @Aig_Regular(ptr noundef %0) #0 {
  %2 = alloca ptr, align 8
  store ptr %0, ptr %2, align 8
  %3 = load ptr, ptr %2, align 8
  %4 = ptrtoint ptr %3 to i64
  %5 = and i64 %4, -2
  %6 = inttoptr i64 %5 to ptr
  ret ptr %6
}

; Function Attrs: nounwind uwtable
define internal ptr @Aig_ObjFindRepr(ptr noundef %0, ptr noundef %1) #0 {
  %3 = alloca ptr, align 8
  %4 = alloca ptr, align 8
  store ptr %0, ptr %3, align 8
  store ptr %1, ptr %4, align 8
  %5 = load ptr, ptr %3, align 8
  %6 = getelementptr inbounds %struct.Aig_Man_t_, ptr %5, i32 0, i32 31
  %7 = load ptr, ptr %6, align 8
  %8 = load ptr, ptr %4, align 8
  %9 = getelementptr inbounds %struct.Aig_Obj_t_, ptr %8, i32 0, i32 5
  %10 = load i32, ptr %9, align 4
  %11 = sext i32 %10 to i64
  %12 = getelementptr inbounds ptr, ptr %7, i64 %11
  %13 = load ptr, ptr %12, align 8
  ret ptr %13
}

; Function Attrs: nounwind uwtable
define internal ptr @Vec_PtrEntry(ptr noundef %0, i32 noundef %1) #0 {
  %3 = alloca ptr, align 8
  %4 = alloca i32, align 4
  store ptr %0, ptr %3, align 8
  store i32 %1, ptr %4, align 4
  %5 = load ptr, ptr %3, align 8
  %6 = getelementptr inbounds %struct.Vec_Ptr_t_, ptr %5, i32 0, i32 2
  %7 = load ptr, ptr %6, align 8
  %8 = load i32, ptr %4, align 4
  %9 = sext i32 %8 to i64
  %10 = getelementptr inbounds ptr, ptr %7, i64 %9
  %11 = load ptr, ptr %10, align 8
  ret ptr %11
}

; Function Attrs: nounwind uwtable
define internal i32 @Vec_PtrSize(ptr noundef %0) #0 {
  %2 = alloca ptr, align 8
  store ptr %0, ptr %2, align 8
  %3 = load ptr, ptr %2, align 8
  %4 = getelementptr inbounds %struct.Vec_Ptr_t_, ptr %3, i32 0, i32 1
  %5 = load i32, ptr %4, align 4
  ret i32 %5
}

; Function Attrs: nounwind uwtable
define internal i32 @Aig_ManObjNumMax(ptr noundef %0) #0 {
  %2 = alloca ptr, align 8
  store ptr %0, ptr %2, align 8
  %3 = load ptr, ptr %2, align 8
  %4 = getelementptr inbounds %struct.Aig_Man_t_, ptr %3, i32 0, i32 4
  %5 = load ptr, ptr %4, align 8
  %6 = call i32 @Vec_PtrSize(ptr noundef %5)
  ret i32 %6
}

; Function Attrs: nounwind uwtable
define void @Aig_ManTransferRepr(ptr noundef %0, ptr noundef %1) #0 {
  %3 = alloca ptr, align 8
  %4 = alloca ptr, align 8
  %5 = alloca ptr, align 8
  %6 = alloca ptr, align 8
  %7 = alloca i32, align 4
  %8 = alloca i32, align 4
  store ptr %0, ptr %3, align 8
  store ptr %1, ptr %4, align 8
  %9 = load ptr, ptr %3, align 8
  %10 = getelementptr inbounds %struct.Aig_Man_t_, ptr %9, i32 0, i32 32
  %11 = load i32, ptr %10, align 8
  %12 = load ptr, ptr %3, align 8
  %13 = call i32 @Aig_ManObjNumMax(ptr noundef %12)
  %14 = icmp slt i32 %11, %13
  br i1 %14, label %15, label %58

15:                                               ; preds = %2
  %16 = load ptr, ptr %3, align 8
  %17 = call i32 @Aig_ManObjNumMax(ptr noundef %16)
  %18 = mul nsw i32 2, %17
  store i32 %18, ptr %8, align 4
  %19 = load ptr, ptr %3, align 8
  %20 = getelementptr inbounds %struct.Aig_Man_t_, ptr %19, i32 0, i32 31
  %21 = load ptr, ptr %20, align 8
  %22 = icmp ne ptr %21, null
  br i1 %22, label %23, label %31

23:                                               ; preds = %15
  %24 = load ptr, ptr %3, align 8
  %25 = getelementptr inbounds %struct.Aig_Man_t_, ptr %24, i32 0, i32 31
  %26 = load ptr, ptr %25, align 8
  %27 = load i32, ptr %8, align 4
  %28 = sext i32 %27 to i64
  %29 = mul i64 8, %28
  %30 = call ptr @realloc(ptr noundef %26, i64 noundef %29) #10
  br label %36

31:                                               ; preds = %15
  %32 = load i32, ptr %8, align 4
  %33 = sext i32 %32 to i64
  %34 = mul i64 8, %33
  %35 = call noalias ptr @malloc(i64 noundef %34) #8
  br label %36

36:                                               ; preds = %31, %23
  %37 = phi ptr [ %30, %23 ], [ %35, %31 ]
  %38 = load ptr, ptr %3, align 8
  %39 = getelementptr inbounds %struct.Aig_Man_t_, ptr %38, i32 0, i32 31
  store ptr %37, ptr %39, align 8
  %40 = load ptr, ptr %3, align 8
  %41 = getelementptr inbounds %struct.Aig_Man_t_, ptr %40, i32 0, i32 31
  %42 = load ptr, ptr %41, align 8
  %43 = load ptr, ptr %3, align 8
  %44 = getelementptr inbounds %struct.Aig_Man_t_, ptr %43, i32 0, i32 32
  %45 = load i32, ptr %44, align 8
  %46 = sext i32 %45 to i64
  %47 = getelementptr inbounds ptr, ptr %42, i64 %46
  %48 = load i32, ptr %8, align 4
  %49 = load ptr, ptr %3, align 8
  %50 = getelementptr inbounds %struct.Aig_Man_t_, ptr %49, i32 0, i32 32
  %51 = load i32, ptr %50, align 8
  %52 = sub nsw i32 %48, %51
  %53 = sext i32 %52 to i64
  %54 = mul i64 8, %53
  call void @llvm.memset.p0.i64(ptr align 8 %47, i8 0, i64 %54, i1 false)
  %55 = load i32, ptr %8, align 4
  %56 = load ptr, ptr %3, align 8
  %57 = getelementptr inbounds %struct.Aig_Man_t_, ptr %56, i32 0, i32 32
  store i32 %55, ptr %57, align 8
  br label %58

58:                                               ; preds = %36, %2
  store i32 0, ptr %7, align 4
  br label %59

59:                                               ; preds = %95, %58
  %60 = load i32, ptr %7, align 4
  %61 = load ptr, ptr %4, align 8
  %62 = getelementptr inbounds %struct.Aig_Man_t_, ptr %61, i32 0, i32 4
  %63 = load ptr, ptr %62, align 8
  %64 = call i32 @Vec_PtrSize(ptr noundef %63)
  %65 = icmp slt i32 %60, %64
  br i1 %65, label %66, label %72

66:                                               ; preds = %59
  %67 = load ptr, ptr %4, align 8
  %68 = getelementptr inbounds %struct.Aig_Man_t_, ptr %67, i32 0, i32 4
  %69 = load ptr, ptr %68, align 8
  %70 = load i32, ptr %7, align 4
  %71 = call ptr @Vec_PtrEntry(ptr noundef %69, i32 noundef %70)
  store ptr %71, ptr %5, align 8
  br label %72

72:                                               ; preds = %66, %59
  %73 = phi i1 [ false, %59 ], [ true, %66 ]
  br i1 %73, label %74, label %98

74:                                               ; preds = %72
  %75 = load ptr, ptr %5, align 8
  %76 = icmp eq ptr %75, null
  br i1 %76, label %77, label %78

77:                                               ; preds = %74
  br label %94

78:                                               ; preds = %74
  %79 = load ptr, ptr %4, align 8
  %80 = load ptr, ptr %5, align 8
  %81 = call ptr @Aig_ObjFindRepr(ptr noundef %79, ptr noundef %80)
  store ptr %81, ptr %6, align 8
  %82 = icmp ne ptr %81, null
  br i1 %82, label %83, label %93

83:                                               ; preds = %78
  %84 = load ptr, ptr %3, align 8
  %85 = load ptr, ptr %6, align 8
  %86 = getelementptr inbounds %struct.Aig_Obj_t_, ptr %85, i32 0, i32 6
  %87 = load ptr, ptr %86, align 8
  %88 = call ptr @Aig_Regular(ptr noundef %87)
  %89 = load ptr, ptr %5, align 8
  %90 = getelementptr inbounds %struct.Aig_Obj_t_, ptr %89, i32 0, i32 6
  %91 = load ptr, ptr %90, align 8
  %92 = call ptr @Aig_Regular(ptr noundef %91)
  call void @Aig_ObjSetRepr_(ptr noundef %84, ptr noundef %88, ptr noundef %92)
  br label %93

93:                                               ; preds = %83, %78
  br label %94

94:                                               ; preds = %93, %77
  br label %95

95:                                               ; preds = %94
  %96 = load i32, ptr %7, align 4
  %97 = add nsw i32 %96, 1
  store i32 %97, ptr %7, align 4
  br label %59, !llvm.loop !4

98:                                               ; preds = %72
  ret void
}