; Function Attrs: nounwind uwtable
define void @Aig_ManTransferRepr(ptr noundef captures(none) %0, ptr noundef readonly captures(none) %1) local_unnamed_addr #6 {
  %3 = getelementptr inbounds nuw i8, ptr %0, i64 264
  %4 = load i32, ptr %3, align 8
  %5 = getelementptr i8, ptr %0, i64 32
  %.val28 = load ptr, ptr %5, align 8
  %6 = getelementptr i8, ptr %.val28, i64 4
  %.val28.val = load i32, ptr %6, align 4
  %7 = icmp slt i32 %4, %.val28.val
  br i1 %7, label %8, label %26

8:                                                ; preds = %2
  %9 = shl nsw i32 %.val28.val, 1
  %10 = getelementptr inbounds nuw i8, ptr %0, i64 256
  %11 = load ptr, ptr %10, align 8
  %.not = icmp eq ptr %11, null
  %12 = sext i32 %9 to i64
  %13 = shl nsw i64 %12, 3
  br i1 %.not, label %16, label %14

14:                                               ; preds = %8
  %15 = tail call ptr @realloc(ptr noundef nonnull %11, i64 noundef %13) #19
  %.pre = load i32, ptr %3, align 8
  br label %18

16:                                               ; preds = %8
  %17 = tail call noalias ptr @malloc(i64 noundef %13) #20
  br label %18

18:                                               ; preds = %16, %14
  %19 = phi i32 [ %.pre, %14 ], [ %4, %16 ]
  %20 = phi ptr [ %15, %14 ], [ %17, %16 ]
  store ptr %20, ptr %10, align 8
  %21 = sext i32 %19 to i64
  %22 = getelementptr inbounds ptr, ptr %20, i64 %21
  %23 = sub nsw i32 %9, %19
  %24 = sext i32 %23 to i64
  %25 = shl nsw i64 %24, 3
  tail call void @llvm.memset.p0.i64(ptr align 8 %22, i8 0, i64 %25, i1 false)
  store i32 %9, ptr %3, align 8
  br label %26

26:                                               ; preds = %18, %2
  %27 = getelementptr inbounds nuw i8, ptr %1, i64 32
  %28 = load ptr, ptr %27, align 8
  %29 = getelementptr i8, ptr %28, i64 4
  %.val33 = load i32, ptr %29, align 4
  %30 = icmp sgt i32 %.val33, 0
  br i1 %30, label %.lr.ph, label %.critedge

.lr.ph:                                           ; preds = %26
  %31 = getelementptr i8, ptr %1, i64 256
  %32 = getelementptr inbounds nuw i8, ptr %0, i64 256
  br label %33

33:                                               ; preds = %.lr.ph, %Aig_ObjSetRepr_.exit
  %34 = phi ptr [ %28, %.lr.ph ], [ %64, %Aig_ObjSetRepr_.exit ]
  %indvars.iv = phi i64 [ 0, %.lr.ph ], [ %indvars.iv.next, %Aig_ObjSetRepr_.exit ]
  %35 = getelementptr i8, ptr %34, i64 8
  %.val30 = load ptr, ptr %35, align 8
  %36 = getelementptr inbounds nuw ptr, ptr %.val30, i64 %indvars.iv
  %37 = load ptr, ptr %36, align 8
  %38 = icmp eq ptr %37, null
  br i1 %38, label %Aig_ObjSetRepr_.exit, label %39

39:                                               ; preds = %33
  %.val31 = load ptr, ptr %31, align 8
  %40 = getelementptr i8, ptr %37, i64 36
  %.val32 = load i32, ptr %40, align 4
  %41 = sext i32 %.val32 to i64
  %42 = getelementptr inbounds ptr, ptr %.val31, i64 %41
  %43 = load ptr, ptr %42, align 8
  %.not27 = icmp eq ptr %43, null
  br i1 %.not27, label %Aig_ObjSetRepr_.exit, label %44

44:                                               ; preds = %39
  %45 = getelementptr inbounds nuw i8, ptr %43, i64 40
  %46 = load ptr, ptr %45, align 8
  %47 = ptrtoint ptr %46 to i64
  %48 = and i64 %47, -2
  %49 = getelementptr inbounds nuw i8, ptr %37, i64 40
  %50 = load ptr, ptr %49, align 8
  %51 = ptrtoint ptr %50 to i64
  %52 = and i64 %51, -2
  %53 = icmp eq i64 %48, %52
  br i1 %53, label %Aig_ObjSetRepr_.exit, label %.sink.split.i

.sink.split.i:                                    ; preds = %44
  %54 = inttoptr i64 %52 to ptr
  %55 = inttoptr i64 %48 to ptr
  %56 = getelementptr inbounds nuw i8, ptr %55, i64 36
  %57 = load i32, ptr %56, align 4
  %58 = getelementptr inbounds nuw i8, ptr %54, i64 36
  %59 = load i32, ptr %58, align 4
  %60 = icmp slt i32 %57, %59
  %61 = load ptr, ptr %32, align 8
  %..i = tail call i32 @llvm.smax.i32(i32 %57, i32 %59)
  %.16.i = select i1 %60, ptr %55, ptr %54
  %62 = sext i32 %..i to i64
  %63 = getelementptr inbounds ptr, ptr %61, i64 %62
  store ptr %.16.i, ptr %63, align 8
  %.pre36 = load ptr, ptr %27, align 8
  br label %Aig_ObjSetRepr_.exit

Aig_ObjSetRepr_.exit:                             ; preds = %.sink.split.i, %44, %33, %39
  %64 = phi ptr [ %.pre36, %.sink.split.i ], [ %34, %44 ], [ %34, %33 ], [ %34, %39 ]
  %indvars.iv.next = add nuw nsw i64 %indvars.iv, 1
  %65 = getelementptr i8, ptr %64, i64 4
  %.val = load i32, ptr %65, align 4
  %66 = sext i32 %.val to i64
  %67 = icmp slt i64 %indvars.iv.next, %66
  br i1 %67, label %33, label %.critedge, !llvm.loop !4

.critedge:                                        ; preds = %Aig_ObjSetRepr_.exit, %26
  ret void
}